#include <math.h>
#include <stdio.h>
#include <stdlib.h>
#include <string.h>

int main()
{ 
	int sum=0, n;
	scanf("%d", &n);
	for(int i=1; i<=n; i++){
		if(i<7){
			sum+=i*i;
		} 
		else{ 
			if(i>=7&&i%7==0||i>10&&(i-7)%10==0||i>70&&(i%70)<=9){
			
			}
			else{
				sum+=i*i;
			}
		}
	}
	printf("%d\n", sum);
	return 0;
}




