; ModuleID = '30/2081.c'
source_filename = "30/2081.c"
target datalayout = "e-m:e-p270:32:32-p271:32:32-p272:64:64-i64:64-f80:128-n8:16:32:64-S128"
target triple = "x86_64-pc-linux-gnu"

@.str = private unnamed_addr constant [3 x i8] c"%d\00", align 1
@.str.1 = private unnamed_addr constant [4 x i8] c"%d\0A\00", align 1

; Function Attrs: noinline nounwind uwtable
define dso_local i32 @main() #0 {
  %1 = alloca i32, align 4
  %2 = alloca i32, align 4
  %3 = alloca i32, align 4
  %4 = alloca i32, align 4
  store i32 0, i32* %1, align 4
  store i32 0, i32* %2, align 4
  %5 = call i32 (i8*, ...) @__isoc99_scanf(i8* getelementptr inbounds ([3 x i8], [3 x i8]* @.str, i64 0, i64 0), i32* %3)
  store i32 1, i32* %4, align 4
  br label %6

6:                                                ; preds = %50, %0
  %7 = load i32, i32* %4, align 4
  %8 = load i32, i32* %3, align 4
  %9 = icmp sle i32 %7, %8
  br i1 %9, label %10, label %53

10:                                               ; preds = %6
  %11 = load i32, i32* %4, align 4
  %12 = icmp slt i32 %11, 7
  br i1 %12, label %13, label %19

13:                                               ; preds = %10
  %14 = load i32, i32* %4, align 4
  %15 = load i32, i32* %4, align 4
  %16 = mul nsw i32 %14, %15
  %17 = load i32, i32* %2, align 4
  %18 = add nsw i32 %17, %16
  store i32 %18, i32* %2, align 4
  br label %49

19:                                               ; preds = %10
  %20 = load i32, i32* %4, align 4
  %21 = icmp sge i32 %20, 7
  br i1 %21, label %22, label %26

22:                                               ; preds = %19
  %23 = load i32, i32* %4, align 4
  %24 = srem i32 %23, 7
  %25 = icmp eq i32 %24, 0
  br i1 %25, label %41, label %26

26:                                               ; preds = %22, %19
  %27 = load i32, i32* %4, align 4
  %28 = icmp sgt i32 %27, 10
  br i1 %28, label %29, label %34

29:                                               ; preds = %26
  %30 = load i32, i32* %4, align 4
  %31 = sub nsw i32 %30, 7
  %32 = srem i32 %31, 10
  %33 = icmp eq i32 %32, 0
  br i1 %33, label %41, label %34

34:                                               ; preds = %29, %26
  %35 = load i32, i32* %4, align 4
  %36 = icmp sgt i32 %35, 70
  br i1 %36, label %37, label %42

37:                                               ; preds = %34
  %38 = load i32, i32* %4, align 4
  %39 = srem i32 %38, 70
  %40 = icmp sle i32 %39, 9
  br i1 %40, label %41, label %42

41:                                               ; preds = %37, %29, %22
  br label %48

42:                                               ; preds = %37, %34
  %43 = load i32, i32* %4, align 4
  %44 = load i32, i32* %4, align 4
  %45 = mul nsw i32 %43, %44
  %46 = load i32, i32* %2, align 4
  %47 = add nsw i32 %46, %45
  store i32 %47, i32* %2, align 4
  br label %48

48:                                               ; preds = %42, %41
  br label %49

49:                                               ; preds = %48, %13
  br label %50

50:                                               ; preds = %49
  %51 = load i32, i32* %4, align 4
  %52 = add nsw i32 %51, 1
  store i32 %52, i32* %4, align 4
  br label %6

53:                                               ; preds = %6
  %54 = load i32, i32* %2, align 4
  %55 = call i32 (i8*, ...) @printf(i8* getelementptr inbounds ([4 x i8], [4 x i8]* @.str.1, i64 0, i64 0), i32 %54)
  ret i32 0
}

declare dso_local i32 @__isoc99_scanf(i8*, ...) #1

declare dso_local i32 @printf(i8*, ...) #1


!llvm.module.flags = !{!0}
!llvm.ident = !{!1}

!0 = !{i32 1, !"wchar_size", i32 4}
!1 = !{!"clang version 10.0.0-4ubuntu1 "}
